; Function Attrs: mustprogress uwtable
define void @_ZN3nix11RemoteStore10getVersionB5cxx11Ev(ptr dead_on_unwind noalias writable sret(%"class.std::optional.67") align 8 %0, ptr nocapture noundef nonnull readonly align 8 dereferenceable(25) %1) unnamed_addr #5 align 2 personality ptr @__gxx_personality_v0 {
  %3 = alloca %"struct.nix::RemoteStore::ConnectionHandle", align 8
  call void @_ZN3nix11RemoteStore13getConnectionEv(ptr dead_on_unwind nonnull writable sret(%"struct.nix::RemoteStore::ConnectionHandle") align 8 %3, ptr noundef nonnull align 8 dereferenceable(25) %1)
  %4 = getelementptr inbounds i8, ptr %3, i64 8
  %5 = load ptr, ptr %4, align 8
  %6 = getelementptr inbounds i8, ptr %5, i64 208
  %7 = getelementptr inbounds i8, ptr %0, i64 32
  store i8 0, ptr %7, align 8
  %8 = load i8, ptr %6, align 8
  %9 = and i8 %8, 1
  %.not.i.i.i.i.i = icmp eq i8 %9, 0
  br i1 %.not.i.i.i.i.i, label %_ZNSt8optionalINSt7__cxx1112basic_stringIcSt11char_traitsIcESaIcEEEEC2ERKS6_.exit, label %_ZNSt22_Optional_payload_baseINSt7__cxx1112basic_stringIcSt11char_traitsIcESaIcEEEE12_M_constructIJRKS5_EEEvDpOT_.exit.i.i.i.i.i

_ZNSt22_Optional_payload_baseINSt7__cxx1112basic_stringIcSt11char_traitsIcESaIcEEEE12_M_constructIJRKS5_EEEvDpOT_.exit.i.i.i.i.i: ; preds = %2
  %10 = getelementptr inbounds i8, ptr %5, i64 176
  invoke void @_ZNSt7__cxx1112basic_stringIcSt11char_traitsIcESaIcEEC2ERKS4_(ptr noundef nonnull align 8 dereferenceable(32) %0, ptr noundef nonnull align 8 dereferenceable(32) %10)
          to label %.noexc unwind label %11

.noexc:                                           ; preds = %_ZNSt22_Optional_payload_baseINSt7__cxx1112basic_stringIcSt11char_traitsIcESaIcEEEE12_M_constructIJRKS5_EEEvDpOT_.exit.i.i.i.i.i
  store i8 1, ptr %7, align 8
  br label %_ZNSt8optionalINSt7__cxx1112basic_stringIcSt11char_traitsIcESaIcEEEEC2ERKS6_.exit

_ZNSt8optionalINSt7__cxx1112basic_stringIcSt11char_traitsIcESaIcEEEEC2ERKS6_.exit: ; preds = %.noexc, %2
  call void @_ZN3nix11RemoteStore16ConnectionHandleD1Ev(ptr noundef nonnull align 8 dereferenceable(33) %3) #29
  ret void

11:                                               ; preds = %_ZNSt22_Optional_payload_baseINSt7__cxx1112basic_stringIcSt11char_traitsIcESaIcEEEE12_M_constructIJRKS5_EEEvDpOT_.exit.i.i.i.i.i
  %12 = landingpad { ptr, i32 }
          cleanup
  call void @_ZN3nix11RemoteStore16ConnectionHandleD1Ev(ptr noundef nonnull align 8 dereferenceable(33) %3) #29
  resume { ptr, i32 } %12
}